; Function Attrs: mustprogress nounwind uwtable
define void @_ZN3gmx15NoseHooverGroup14finalizeUpdateEf(ptr noundef nonnull align 8 captures(none) dereferenceable(112) %0, float noundef %1) local_unnamed_addr #0 align 2 {
  %3 = getelementptr inbounds nuw i8, ptr %0, i64 104
  %4 = load float, ptr %3, align 8, !tbaa !50
  %5 = fadd float %1, %4
  store float %5, ptr %3, align 8, !tbaa !50
  %6 = getelementptr inbounds nuw i8, ptr %0, i64 16
  %7 = load float, ptr %6, align 8, !tbaa !83
  %8 = fdiv float %5, %7
  %9 = tail call noundef i64 @lroundf(float noundef %8) #30, !tbaa !86
  %10 = sitofp i64 %9 to float
  %11 = fmul float %7, %10
  %12 = fpext float %11 to double
  %13 = fpext float %5 to double
  %14 = fsub double %12, %13
  %15 = fmul double %14, %14
  %16 = fcmp olt double %15, 0x3D71979980000000
  br i1 %16, label %17, label %53

17:                                               ; preds = %2
  %18 = getelementptr inbounds nuw i8, ptr %0, i64 72
  store double 0.000000e+00, ptr %18, align 8, !tbaa !35
  %19 = getelementptr inbounds nuw i8, ptr %0, i64 12
  %20 = load i32, ptr %19, align 4, !tbaa !44
  %21 = icmp sgt i32 %20, 0
  br i1 %21, label %.lr.ph.i, label %_ZN3gmx15NoseHooverGroup17calculateIntegralEv.exit

.lr.ph.i:                                         ; preds = %17
  %22 = getelementptr inbounds nuw i8, ptr %0, i64 8
  %23 = load float, ptr %22, align 8
  %24 = getelementptr inbounds nuw i8, ptr %0, i64 48
  %25 = load ptr, ptr %24, align 8, !tbaa !45
  %26 = getelementptr inbounds nuw i8, ptr %0, i64 80
  %27 = load ptr, ptr %26, align 8, !tbaa !45
  %28 = getelementptr inbounds nuw i8, ptr %0, i64 24
  %29 = load ptr, ptr %28, align 8, !tbaa !45
  %30 = load float, ptr %0, align 8, !tbaa !46
  %31 = fpext float %30 to double
  %wide.trip.count.i = zext nneg i32 %20 to i64
  br label %32

._crit_edge.i:                                    ; preds = %32
  store double %51, ptr %18, align 8, !tbaa !35
  br label %_ZN3gmx15NoseHooverGroup17calculateIntegralEv.exit

32:                                               ; preds = %32, %.lr.ph.i
  %indvars.iv.i = phi i64 [ 0, %.lr.ph.i ], [ %indvars.iv.next.i, %32 ]
  %33 = phi double [ 0.000000e+00, %.lr.ph.i ], [ %51, %32 ]
  %34 = icmp eq i64 %indvars.iv.i, 0
  %35 = select i1 %34, float %23, float 1.000000e+00
  %36 = getelementptr inbounds nuw float, ptr %25, i64 %indvars.iv.i
  %37 = load float, ptr %36, align 4, !tbaa !47
  %38 = fmul float %37, %37
  %39 = fpext float %38 to double
  %40 = fmul double %39, 5.000000e-01
  %41 = getelementptr inbounds nuw float, ptr %27, i64 %indvars.iv.i
  %42 = load float, ptr %41, align 4, !tbaa !47
  %43 = fpext float %42 to double
  %44 = fdiv double %40, %43
  %45 = getelementptr inbounds nuw float, ptr %29, i64 %indvars.iv.i
  %46 = load float, ptr %45, align 4, !tbaa !47
  %47 = fmul float %35, %46
  %48 = fpext float %47 to double
  %49 = fmul double %48, 0x3F81072C483AF26D
  %50 = tail call double @llvm.fmuladd.f64(double %49, double %31, double %44)
  %51 = fadd double %33, %50
  %indvars.iv.next.i = add nuw nsw i64 %indvars.iv.i, 1
  %exitcond.not.i = icmp eq i64 %indvars.iv.next.i, %wide.trip.count.i
  br i1 %exitcond.not.i, label %._crit_edge.i, label %32, !llvm.loop !48

_ZN3gmx15NoseHooverGroup17calculateIntegralEv.exit: ; preds = %17, %._crit_edge.i
  %52 = getelementptr inbounds nuw i8, ptr %0, i64 108
  store float %5, ptr %52, align 4, !tbaa !51
  br label %53

53:                                               ; preds = %_ZN3gmx15NoseHooverGroup17calculateIntegralEv.exit, %2
  ret void
}